; ModuleID = '46/609.c'
source_filename = "46/609.c"
target datalayout = "e-m:e-p270:32:32-p271:32:32-p272:64:64-i64:64-f80:128-n8:16:32:64-S128"
target triple = "x86_64-pc-linux-gnu"

@.str = private unnamed_addr constant [6 x i8] c"%d %d\00", align 1
@.str.1 = private unnamed_addr constant [3 x i8] c"%d\00", align 1
@.str.2 = private unnamed_addr constant [4 x i8] c"%d\0A\00", align 1

; Function Attrs: noinline nounwind uwtable
define dso_local void @main() #0 {
  %1 = alloca i32, align 4
  %2 = alloca i32, align 4
  %3 = alloca i32, align 4
  %4 = alloca i32, align 4
  %5 = alloca [100 x [100 x i32]], align 16
  %6 = alloca i32, align 4
  %7 = call i32 (i8*, ...) @__isoc99_scanf(i8* getelementptr inbounds ([6 x i8], [6 x i8]* @.str, i64 0, i64 0), i32* %1, i32* %2)
  %8 = load i32, i32* %1, align 4
  %9 = load i32, i32* %2, align 4
  %10 = mul nsw i32 %8, %9
  store i32 %10, i32* %6, align 4
  store i32 0, i32* %3, align 4
  br label %11

11:                                               ; preds = %32, %0
  %12 = load i32, i32* %3, align 4
  %13 = load i32, i32* %1, align 4
  %14 = icmp slt i32 %12, %13
  br i1 %14, label %15, label %35

15:                                               ; preds = %11
  store i32 0, i32* %4, align 4
  br label %16

16:                                               ; preds = %28, %15
  %17 = load i32, i32* %4, align 4
  %18 = load i32, i32* %2, align 4
  %19 = icmp slt i32 %17, %18
  br i1 %19, label %20, label %31

20:                                               ; preds = %16
  %21 = load i32, i32* %3, align 4
  %22 = sext i32 %21 to i64
  %23 = getelementptr inbounds [100 x [100 x i32]], [100 x [100 x i32]]* %5, i64 0, i64 %22
  %24 = load i32, i32* %4, align 4
  %25 = sext i32 %24 to i64
  %26 = getelementptr inbounds [100 x i32], [100 x i32]* %23, i64 0, i64 %25
  %27 = call i32 (i8*, ...) @__isoc99_scanf(i8* getelementptr inbounds ([3 x i8], [3 x i8]* @.str.1, i64 0, i64 0), i32* %26)
  br label %28

28:                                               ; preds = %20
  %29 = load i32, i32* %4, align 4
  %30 = add nsw i32 %29, 1
  store i32 %30, i32* %4, align 4
  br label %16

31:                                               ; preds = %16
  br label %32

32:                                               ; preds = %31
  %33 = load i32, i32* %3, align 4
  %34 = add nsw i32 %33, 1
  store i32 %34, i32* %3, align 4
  br label %11

35:                                               ; preds = %11
  %36 = load i32, i32* %1, align 4
  %37 = sub nsw i32 %36, 1
  store i32 %37, i32* %1, align 4
  %38 = load i32, i32* %2, align 4
  %39 = sub nsw i32 %38, 1
  store i32 %39, i32* %2, align 4
  store i32 0, i32* %3, align 4
  br label %40

40:                                               ; preds = %159, %35
  %41 = load i32, i32* %3, align 4
  %42 = load i32, i32* %1, align 4
  %43 = sdiv i32 %42, 2
  %44 = icmp sle i32 %41, %43
  br i1 %44, label %45, label %162

45:                                               ; preds = %40
  %46 = load i32, i32* %3, align 4
  store i32 %46, i32* %4, align 4
  br label %47

47:                                               ; preds = %68, %45
  %48 = load i32, i32* %4, align 4
  %49 = load i32, i32* %2, align 4
  %50 = load i32, i32* %3, align 4
  %51 = sub nsw i32 %49, %50
  %52 = icmp sle i32 %48, %51
  br i1 %52, label %53, label %71

53:                                               ; preds = %47
  %54 = load i32, i32* %3, align 4
  %55 = sext i32 %54 to i64
  %56 = getelementptr inbounds [100 x [100 x i32]], [100 x [100 x i32]]* %5, i64 0, i64 %55
  %57 = load i32, i32* %4, align 4
  %58 = sext i32 %57 to i64
  %59 = getelementptr inbounds [100 x i32], [100 x i32]* %56, i64 0, i64 %58
  %60 = load i32, i32* %59, align 4
  %61 = call i32 (i8*, ...) @printf(i8* getelementptr inbounds ([4 x i8], [4 x i8]* @.str.2, i64 0, i64 0), i32 %60)
  %62 = load i32, i32* %6, align 4
  %63 = add nsw i32 %62, -1
  store i32 %63, i32* %6, align 4
  %64 = load i32, i32* %6, align 4
  %65 = icmp eq i32 %64, 0
  br i1 %65, label %66, label %67

66:                                               ; preds = %53
  br label %163

67:                                               ; preds = %53
  br label %68

68:                                               ; preds = %67
  %69 = load i32, i32* %4, align 4
  %70 = add nsw i32 %69, 1
  store i32 %70, i32* %4, align 4
  br label %47

71:                                               ; preds = %47
  %72 = load i32, i32* %4, align 4
  %73 = add nsw i32 %72, -1
  store i32 %73, i32* %4, align 4
  %74 = load i32, i32* %3, align 4
  %75 = add nsw i32 %74, 1
  store i32 %75, i32* %3, align 4
  br label %76

76:                                               ; preds = %99, %71
  %77 = load i32, i32* %3, align 4
  %78 = load i32, i32* %1, align 4
  %79 = load i32, i32* %2, align 4
  %80 = load i32, i32* %4, align 4
  %81 = sub nsw i32 %79, %80
  %82 = sub nsw i32 %78, %81
  %83 = icmp sle i32 %77, %82
  br i1 %83, label %84, label %102

84:                                               ; preds = %76
  %85 = load i32, i32* %3, align 4
  %86 = sext i32 %85 to i64
  %87 = getelementptr inbounds [100 x [100 x i32]], [100 x [100 x i32]]* %5, i64 0, i64 %86
  %88 = load i32, i32* %4, align 4
  %89 = sext i32 %88 to i64
  %90 = getelementptr inbounds [100 x i32], [100 x i32]* %87, i64 0, i64 %89
  %91 = load i32, i32* %90, align 4
  %92 = call i32 (i8*, ...) @printf(i8* getelementptr inbounds ([4 x i8], [4 x i8]* @.str.2, i64 0, i64 0), i32 %91)
  %93 = load i32, i32* %6, align 4
  %94 = add nsw i32 %93, -1
  store i32 %94, i32* %6, align 4
  %95 = load i32, i32* %6, align 4
  %96 = icmp eq i32 %95, 0
  br i1 %96, label %97, label %98

97:                                               ; preds = %84
  br label %163

98:                                               ; preds = %84
  br label %99

99:                                               ; preds = %98
  %100 = load i32, i32* %3, align 4
  %101 = add nsw i32 %100, 1
  store i32 %101, i32* %3, align 4
  br label %76

102:                                              ; preds = %76
  %103 = load i32, i32* %3, align 4
  %104 = add nsw i32 %103, -1
  store i32 %104, i32* %3, align 4
  %105 = load i32, i32* %4, align 4
  %106 = sub nsw i32 %105, 1
  store i32 %106, i32* %4, align 4
  br label %107

107:                                              ; preds = %128, %102
  %108 = load i32, i32* %4, align 4
  %109 = load i32, i32* %1, align 4
  %110 = load i32, i32* %3, align 4
  %111 = sub nsw i32 %109, %110
  %112 = icmp sge i32 %108, %111
  br i1 %112, label %113, label %131

113:                                              ; preds = %107
  %114 = load i32, i32* %3, align 4
  %115 = sext i32 %114 to i64
  %116 = getelementptr inbounds [100 x [100 x i32]], [100 x [100 x i32]]* %5, i64 0, i64 %115
  %117 = load i32, i32* %4, align 4
  %118 = sext i32 %117 to i64
  %119 = getelementptr inbounds [100 x i32], [100 x i32]* %116, i64 0, i64 %118
  %120 = load i32, i32* %119, align 4
  %121 = call i32 (i8*, ...) @printf(i8* getelementptr inbounds ([4 x i8], [4 x i8]* @.str.2, i64 0, i64 0), i32 %120)
  %122 = load i32, i32* %6, align 4
  %123 = add nsw i32 %122, -1
  store i32 %123, i32* %6, align 4
  %124 = load i32, i32* %6, align 4
  %125 = icmp eq i32 %124, 0
  br i1 %125, label %126, label %127

126:                                              ; preds = %113
  br label %163

127:                                              ; preds = %113
  br label %128

128:                                              ; preds = %127
  %129 = load i32, i32* %4, align 4
  %130 = add nsw i32 %129, -1
  store i32 %130, i32* %4, align 4
  br label %107

131:                                              ; preds = %107
  %132 = load i32, i32* %4, align 4
  %133 = add nsw i32 %132, 1
  store i32 %133, i32* %4, align 4
  %134 = load i32, i32* %3, align 4
  %135 = sub nsw i32 %134, 1
  store i32 %135, i32* %3, align 4
  br label %136

136:                                              ; preds = %155, %131
  %137 = load i32, i32* %3, align 4
  %138 = load i32, i32* %4, align 4
  %139 = icmp sgt i32 %137, %138
  br i1 %139, label %140, label %158

140:                                              ; preds = %136
  %141 = load i32, i32* %3, align 4
  %142 = sext i32 %141 to i64
  %143 = getelementptr inbounds [100 x [100 x i32]], [100 x [100 x i32]]* %5, i64 0, i64 %142
  %144 = load i32, i32* %4, align 4
  %145 = sext i32 %144 to i64
  %146 = getelementptr inbounds [100 x i32], [100 x i32]* %143, i64 0, i64 %145
  %147 = load i32, i32* %146, align 4
  %148 = call i32 (i8*, ...) @printf(i8* getelementptr inbounds ([4 x i8], [4 x i8]* @.str.2, i64 0, i64 0), i32 %147)
  %149 = load i32, i32* %6, align 4
  %150 = add nsw i32 %149, -1
  store i32 %150, i32* %6, align 4
  %151 = load i32, i32* %6, align 4
  %152 = icmp eq i32 %151, 0
  br i1 %152, label %153, label %154

153:                                              ; preds = %140
  br label %163

154:                                              ; preds = %140
  br label %155

155:                                              ; preds = %154
  %156 = load i32, i32* %3, align 4
  %157 = add nsw i32 %156, -1
  store i32 %157, i32* %3, align 4
  br label %136

158:                                              ; preds = %136
  br label %159

159:                                              ; preds = %158
  %160 = load i32, i32* %3, align 4
  %161 = add nsw i32 %160, 1
  store i32 %161, i32* %3, align 4
  br label %40

162:                                              ; preds = %40
  br label %163

163:                                              ; preds = %162, %153, %126, %97, %66
  ret void
}

declare dso_local i32 @__isoc99_scanf(i8*, ...) #1

declare dso_local i32 @printf(i8*, ...) #1


!llvm.module.flags = !{!0}
!llvm.ident = !{!1}

!0 = !{i32 1, !"wchar_size", i32 4}
!1 = !{!"clang version 10.0.0-4ubuntu1 "}
